Certificate:
    Data:
        Version: 3 (0x2)
        Serial Number: 0 (0x0)
        Signature Algorithm: sha1WithRSAEncryption
        Issuer: C=IE, ST=Co. Dublin, L=Dublin, O=OpenTSA, CN=OpenTSA Root CA/Email=info@opentsa.org
        Validity
            Not Before: Oct 17 20:51:34 2002 GMT
            Not After : Oct 16 20:51:34 2006 GMT
        Subject: C=IE, ST=Co. Dublin, L=Dublin, O=OpenTSA, CN=OpenTSA Root CA/Email=info@opentsa.org
        Subject Public Key Info:
            Public Key Algorithm: rsaEncryption
            RSA Public Key: (2048 bit)
                Modulus (2048 bit):
                    00:dd:ed:3a:e7:60:48:35:5c:3e:8e:1e:b2:c5:fe:
                    d6:27:0c:3a:11:4b:ca:78:b8:0e:57:92:4a:10:9d:
                    7a:de:34:12:c0:86:41:59:4e:f1:a9:9c:5e:8f:7b:
                    38:e6:2e:1b:22:6b:a2:c0:8b:99:21:9a:0f:07:d9:
                    ef:1c:89:02:40:25:66:f0:56:5e:23:43:53:2e:af:
                    50:c8:4e:57:a4:a7:5b:0f:0d:99:cb:eb:b2:7a:cb:
                    35:62:ab:be:72:2f:e1:97:98:ce:f8:97:0c:ff:26:
                    4f:92:59:64:9a:71:56:12:17:27:99:07:36:8e:8f:
                    71:c0:a7:dd:6e:07:6a:17:b9:13:70:a5:40:79:87:
                    18:94:4b:fd:fc:cd:6c:ca:af:38:58:74:fd:25:84:
                    2d:fc:df:03:d6:9d:3c:53:82:b6:9f:ab:6a:61:ad:
                    74:47:e3:e4:d3:1f:35:6f:1c:94:78:34:ed:ff:41:
                    49:ff:83:b1:a0:dc:5a:ec:ba:45:84:1e:e5:d8:88:
                    5c:f9:77:eb:f8:ca:3b:dc:23:eb:e7:57:9e:9d:65:
                    67:85:c9:96:10:5c:4a:09:f5:4d:51:8f:34:a5:ed:
                    7e:4f:f9:e8:0c:08:52:fc:1a:51:be:57:d5:da:de:
                    f0:b6:13:89:bd:df:67:64:91:65:47:90:5c:d9:4a:
                    95:7f
                Exponent: 65537 (0x10001)
        X509v3 extensions:
            X509v3 Subject Key Identifier: 
                2D:9D:F7:1D:7E:65:77:9A:F4:D9:B4:99:B1:17:3B:C4:2F:C8:AD:A5
            X509v3 Authority Key Identifier: 
                keyid:2D:9D:F7:1D:7E:65:77:9A:F4:D9:B4:99:B1:17:3B:C4:2F:C8:AD:A5
                DirName:/C=IE/ST=Co. Dublin/L=Dublin/O=OpenTSA/CN=OpenTSA Root CA/Email=info@opentsa.org
                serial:00

            X509v3 Basic Constraints: 
                CA:TRUE
            X509v3 Key Usage: 
                Certificate Sign, CRL Sign
            Netscape Cert Type: 
                SSL CA, S/MIME CA
            X509v3 Subject Alternative Name: 
                email:info@opentsa.org
    Signature Algorithm: sha1WithRSAEncryption
        26:a9:2d:41:7e:71:12:da:bb:89:ae:0c:84:e4:fc:fc:71:6b:
        13:1e:41:2c:85:a0:51:ba:81:90:4c:9a:2c:a4:61:ed:7b:61:
        ac:a4:13:c7:6c:07:e9:46:e4:f6:c3:05:31:96:c2:42:fc:39:
        2d:43:37:34:24:8b:eb:3e:90:fc:f5:fe:64:37:1f:8c:24:98:
        e6:fc:62:fc:9c:2c:05:b4:7f:59:4e:28:da:22:64:0b:5c:35:
        ba:0b:de:81:53:0b:80:9b:3a:fd:be:a7:ed:63:09:ee:ab:52:
        b7:de:96:12:1e:58:87:de:c0:61:31:56:86:bb:93:9a:df:20:
        63:20:f6:ef:f9:b8:28:1b:6e:0e:36:35:be:a2:8a:d2:f9:d1:
        54:04:29:18:5e:27:72:65:8b:63:22:a7:43:2a:ab:39:ae:ef:
        cf:d5:ff:d1:9c:21:fb:8c:96:d5:12:d1:51:12:15:33:db:96:
        96:aa:5e:55:9d:b2:c5:e8:83:22:fa:08:ef:8c:51:80:a8:59:
        6b:ec:80:19:f7:6e:6b:c8:80:53:8f:30:d8:f8:b3:83:31:ed:
        e3:5c:ce:5c:47:d8:2f:71:c8:88:78:d0:90:b4:d6:39:64:0d:
        05:8a:86:c4:63:b5:9b:63:3f:df:a2:e6:28:39:d0:67:27:75:
        4d:e2:cf:1e
-----BEGIN CERTIFICATE-----
MIIEnTCCA4WgAwIBAgIBADANBgkqhkiG9w0BAQUFADCBgDELMAkGA1UEBhMCSUUx
EzARBgNVBAgTCkNvLiBEdWJsaW4xDzANBgNVBAcTBkR1YmxpbjEQMA4GA1UEChMH
T3BlblRTQTEYMBYGA1UEAxMPT3BlblRTQSBSb290IENBMR8wHQYJKoZIhvcNAQkB
FhBpbmZvQG9wZW50c2Eub3JnMB4XDTAyMTAxNzIwNTEzNFoXDTA2MTAxNjIwNTEz
NFowgYAxCzAJBgNVBAYTAklFMRMwEQYDVQQIEwpDby4gRHVibGluMQ8wDQYDVQQH
EwZEdWJsaW4xEDAOBgNVBAoTB09wZW5UU0ExGDAWBgNVBAMTD09wZW5UU0EgUm9v
dCBDQTEfMB0GCSqGSIb3DQEJARYQaW5mb0BvcGVudHNhLm9yZzCCASIwDQYJKoZI
hvcNAQEBBQADggEPADCCAQoCggEBAN3tOudgSDVcPo4essX+1icMOhFLyni4DleS
ShCdet40EsCGQVlO8amcXo97OOYuGyJrosCLmSGaDwfZ7xyJAkAlZvBWXiNDUy6v
UMhOV6SnWw8NmcvrsnrLNWKrvnIv4ZeYzviXDP8mT5JZZJpxVhIXJ5kHNo6PccCn
3W4Hahe5E3ClQHmHGJRL/fzNbMqvOFh0/SWELfzfA9adPFOCtp+ramGtdEfj5NMf
NW8clHg07f9BSf+DsaDcWuy6RYQe5diIXPl36/jKO9wj6+dXnp1lZ4XJlhBcSgn1
TVGPNKXtfk/56AwIUvwaUb5X1dre8LYTib3fZ2SRZUeQXNlKlX8CAwEAAaOCAR4w
ggEaMB0GA1UdDgQWBBQtnfcdfmV3mvTZtJmxFzvEL8itpTCBrQYDVR0jBIGlMIGi
gBQtnfcdfmV3mvTZtJmxFzvEL8itpaGBhqSBgzCBgDELMAkGA1UEBhMCSUUxEzAR
BgNVBAgTCkNvLiBEdWJsaW4xDzANBgNVBAcTBkR1YmxpbjEQMA4GA1UEChMHT3Bl
blRTQTEYMBYGA1UEAxMPT3BlblRTQSBSb290IENBMR8wHQYJKoZIhvcNAQkBFhBp
bmZvQG9wZW50c2Eub3JnggEAMAwGA1UdEwQFMAMBAf8wCwYDVR0PBAQDAgEGMBEG
CWCGSAGG+EIBAQQEAwIBBjAbBgNVHREEFDASgRBpbmZvQG9wZW50c2Eub3JnMA0G
CSqGSIb3DQEBBQUAA4IBAQAmqS1BfnES2ruJrgyE5Pz8cWsTHkEshaBRuoGQTJos
pGHte2GspBPHbAfpRuT2wwUxlsJC/DktQzc0JIvrPpD89f5kNx+MJJjm/GL8nCwF
tH9ZTijaImQLXDW6C96BUwuAmzr9vqftYwnuq1K33pYSHliH3sBhMVaGu5Oa3yBj
IPbv+bgoG24ONjW+oorS+dFUBCkYXidyZYtjIqdDKqs5ru/P1f/RnCH7jJbVEtFR
EhUz25aWql5VnbLF6IMi+gjvjFGAqFlr7IAZ925ryIBTjzDY+LODMe3jXM5cR9gv
cciIeNCQtNY5ZA0FiobEY7WbYz/fouYoOdBnJ3VN4s8e
-----END CERTIFICATE-----
