Certificate:
    Data:
        Version: 3 (0x2)
        Serial Number: 14 (0xe)
        Signature Algorithm: sha1WithRSAEncryption
        Issuer: C=IE, ST=Co. Dublin, L=Dublin, O=OpenTSA, CN=OpenTSA Root CA/emailAddress=info@opentsa.org
        Validity
            Not Before: Nov 12 19:41:39 2005 GMT
            Not After : Nov 12 19:41:39 2007 GMT
        Subject: C=HU, ST=Co. Bekes, L=Bekescsaba, O=OpenTSA, CN=ns.szikszi.hu/emailAddress=zglozik@opentsa.org
        Subject Public Key Info:
            Public Key Algorithm: rsaEncryption
            RSA Public Key: (1024 bit)
                Modulus (1024 bit):
                    00:d6:79:1d:1f:17:8e:0c:ce:94:6d:cc:d1:45:95:
                    72:e2:f3:c6:e9:e9:ef:95:f9:5d:63:d5:de:74:11:
                    47:13:1b:e6:af:df:cf:d4:e5:55:0a:0b:83:1d:72:
                    6e:50:6c:26:33:f1:47:26:22:6a:bf:b2:59:c8:a3:
                    34:a9:9f:ff:e0:0b:32:8f:a1:25:e6:63:c6:61:e0:
                    d6:f4:32:90:4a:c2:09:9b:85:85:5e:03:ee:af:7e:
                    7f:b9:e5:4d:c2:ab:7e:f4:79:d3:dd:6e:c3:e1:45:
                    89:e7:fb:39:e3:d2:60:73:9f:eb:d4:45:a1:f1:4e:
                    e9:50:21:0e:c0:e4:42:bf:c5
                Exponent: 65537 (0x10001)
        X509v3 extensions:
            X509v3 Basic Constraints: 
                CA:FALSE
            Netscape Cert Type: 
                SSL Server
            X509v3 Key Usage: 
                Key Encipherment
            Netscape Comment: 
                OpenTSA SSL certificate
            X509v3 Subject Key Identifier: 
                F9:16:C3:BF:EA:D3:C5:C1:0A:87:29:42:43:9F:4B:A0:A5:8F:9C:B1
            X509v3 Authority Key Identifier: 
                keyid:2D:9D:F7:1D:7E:65:77:9A:F4:D9:B4:99:B1:17:3B:C4:2F:C8:AD:A5
                DirName:/C=IE/ST=Co. Dublin/L=Dublin/O=OpenTSA/CN=OpenTSA Root CA/emailAddress=info@opentsa.org
                serial:00

            X509v3 Subject Alternative Name: 
                email:zglozik@opentsa.org
            X509v3 Extended Key Usage: 
                TLS Web Server Authentication
    Signature Algorithm: sha1WithRSAEncryption
        64:66:ab:50:e8:63:01:34:07:76:41:2f:f4:d5:09:e9:11:40:
        4b:e7:7b:32:fc:48:e6:86:58:a4:35:2d:63:3a:57:2a:d6:b3:
        4c:4c:23:9f:92:40:75:43:82:7d:8d:99:fa:87:85:f0:71:86:
        61:8a:7d:ef:8d:1b:a3:d4:56:96:9b:4d:6c:98:00:63:02:49:
        a1:64:93:f6:93:fe:28:23:99:47:d3:83:a1:78:cd:87:4c:46:
        1c:47:bf:eb:9f:af:33:a2:af:f1:bc:21:43:8d:30:a0:3b:1a:
        a7:74:e4:1e:37:18:03:ef:b1:06:6c:4e:d9:69:42:9f:13:57:
        44:3f:0d:f7:cc:6e:9c:58:b1:28:f4:68:43:54:86:fb:7b:30:
        4e:6b:91:1b:8c:cd:52:33:bc:4d:d5:11:ce:4f:ba:81:d8:9f:
        7c:79:c7:cc:91:ce:8b:76:2c:11:c0:20:8b:1f:2b:00:77:af:
        3d:1e:c6:8d:b2:a9:90:30:57:f7:cb:8d:31:9d:71:e1:2e:d9:
        7a:e5:4c:f9:d6:44:40:a6:fe:a3:ee:68:8b:51:17:46:d1:59:
        eb:db:df:57:e5:0f:4d:c4:b6:80:09:3b:9c:91:bf:a5:d7:a0:
        ec:b0:30:0b:af:6d:66:9f:69:c4:a0:7b:e0:8c:4b:5b:65:b3:
        9c:ff:86:c8
-----BEGIN CERTIFICATE-----
MIIEWjCCA0KgAwIBAgIBDjANBgkqhkiG9w0BAQUFADCBgDELMAkGA1UEBhMCSUUx
EzARBgNVBAgTCkNvLiBEdWJsaW4xDzANBgNVBAcTBkR1YmxpbjEQMA4GA1UEChMH
T3BlblRTQTEYMBYGA1UEAxMPT3BlblRTQSBSb290IENBMR8wHQYJKoZIhvcNAQkB
FhBpbmZvQG9wZW50c2Eub3JnMB4XDTA1MTExMjE5NDEzOVoXDTA3MTExMjE5NDEz
OVowgYQxCzAJBgNVBAYTAkhVMRIwEAYDVQQIEwlDby4gQmVrZXMxEzARBgNVBAcT
CkJla2VzY3NhYmExEDAOBgNVBAoTB09wZW5UU0ExFjAUBgNVBAMTDW5zLnN6aWtz
emkuaHUxIjAgBgkqhkiG9w0BCQEWE3pnbG96aWtAb3BlbnRzYS5vcmcwgZ8wDQYJ
KoZIhvcNAQEBBQADgY0AMIGJAoGBANZ5HR8XjgzOlG3M0UWVcuLzxunp75X5XWPV
3nQRRxMb5q/fz9TlVQoLgx1yblBsJjPxRyYiar+yWcijNKmf/+ALMo+hJeZjxmHg
1vQykErCCZuFhV4D7q9+f7nlTcKrfvR5091uw+FFief7OePSYHOf69RFofFO6VAh
DsDkQr/FAgMBAAGjggFbMIIBVzAJBgNVHRMEAjAAMBEGCWCGSAGG+EIBAQQEAwIG
QDALBgNVHQ8EBAMCBSAwJgYJYIZIAYb4QgENBBkWF09wZW5UU0EgU1NMIGNlcnRp
ZmljYXRlMB0GA1UdDgQWBBT5FsO/6tPFwQqHKUJDn0ugpY+csTCBrQYDVR0jBIGl
MIGigBQtnfcdfmV3mvTZtJmxFzvEL8itpaGBhqSBgzCBgDELMAkGA1UEBhMCSUUx
EzARBgNVBAgTCkNvLiBEdWJsaW4xDzANBgNVBAcTBkR1YmxpbjEQMA4GA1UEChMH
T3BlblRTQTEYMBYGA1UEAxMPT3BlblRTQSBSb290IENBMR8wHQYJKoZIhvcNAQkB
FhBpbmZvQG9wZW50c2Eub3JnggEAMB4GA1UdEQQXMBWBE3pnbG96aWtAb3BlbnRz
YS5vcmcwEwYDVR0lBAwwCgYIKwYBBQUHAwEwDQYJKoZIhvcNAQEFBQADggEBAGRm
q1DoYwE0B3ZBL/TVCekRQEvnezL8SOaGWKQ1LWM6VyrWs0xMI5+SQHVDgn2NmfqH
hfBxhmGKfe+NG6PUVpabTWyYAGMCSaFkk/aT/igjmUfTg6F4zYdMRhxHv+ufrzOi
r/G8IUONMKA7Gqd05B43GAPvsQZsTtlpQp8TV0Q/DffMbpxYsSj0aENUhvt7ME5r
kRuMzVIzvE3VEc5PuoHYn3x5x8yRzot2LBHAIIsfKwB3rz0exo2yqZAwV/fLjTGd
ceEu2XrlTPnWRECm/qPuaItRF0bRWevb31flD03EtoAJO5yRv6XXoOywMAuvbWaf
acSge+CMS1tls5z/hsg=
-----END CERTIFICATE-----
